target datalayout = "e-m:e-p270:32:32-p271:32:32-p272:64:64-i64:64-i128:128-f80:128-n8:16:32:64-S128"
target triple = "x86_64-pc-linux-gnu"

; Function Attrs: mustprogress uwtable
define noundef i32 @_Z10tMPI_Get_NPiPPPcPKcS_(ptr noundef %0, ptr noundef %1, ptr noundef %2, ptr noundef %3) #0 {
  %5 = alloca ptr, align 8
  %6 = alloca ptr, align 8
  %7 = alloca ptr, align 8
  %8 = alloca ptr, align 8
  %9 = alloca i32, align 4
  %10 = alloca i32, align 4
  %11 = alloca ptr, align 8
  %12 = alloca i32, align 4
  store ptr %0, ptr %5, align 8, !tbaa !51
  store ptr %1, ptr %6, align 8, !tbaa !52
  store ptr %2, ptr %7, align 8, !tbaa !55
  store ptr %3, ptr %8, align 8, !tbaa !51
  call void @llvm.lifetime.start.p0(i64 4, ptr %9) #11
  call void @llvm.lifetime.start.p0(i64 4, ptr %10) #11
  store i32 0, ptr %10, align 4, !tbaa !30
  %13 = load ptr, ptr %8, align 8, !tbaa !51
  store i32 0, ptr %13, align 4, !tbaa !30
  %14 = load ptr, ptr %7, align 8, !tbaa !55
  %15 = icmp ne ptr %14, null
  br i1 %15, label %17, label %16

16:                                               ; preds = %4
  store i32 0, ptr %9, align 4, !tbaa !30
  br label %39

17:                                               ; preds = %4
  store i32 1, ptr %9, align 4, !tbaa !30
  br label %18

18:                                               ; preds = %35, %17
  %19 = load i32, ptr %9, align 4, !tbaa !30
  %20 = load ptr, ptr %5, align 8, !tbaa !51
  %21 = load i32, ptr %20, align 4, !tbaa !30
  %22 = icmp slt i32 %19, %21
  br i1 %22, label %23, label %38

23:                                               ; preds = %18
  %24 = load ptr, ptr %7, align 8, !tbaa !55
  %25 = load ptr, ptr %6, align 8, !tbaa !52
  %26 = load ptr, ptr %25, align 8, !tbaa !57
  %27 = load i32, ptr %9, align 4, !tbaa !30
  %28 = sext i32 %27 to i64
  %29 = getelementptr inbounds ptr, ptr %26, i64 %28
  %30 = load ptr, ptr %29, align 8, !tbaa !55
  %31 = call i32 @strcmp(ptr noundef %24, ptr noundef %30) #12
  %32 = icmp eq i32 %31, 0
  br i1 %32, label %33, label %34

33:                                               ; preds = %23
  br label %38

34:                                               ; preds = %23
  br label %35

35:                                               ; preds = %34
  %36 = load i32, ptr %9, align 4, !tbaa !30
  %37 = add nsw i32 %36, 1
  store i32 %37, ptr %9, align 4, !tbaa !30
  br label %18, !llvm.loop !58

38:                                               ; preds = %33, %18
  br label %39

39:                                               ; preds = %38, %16
  %40 = load i32, ptr %9, align 4, !tbaa !30
  %41 = add nsw i32 %40, 1
  %42 = load ptr, ptr %5, align 8, !tbaa !51
  %43 = load i32, ptr %42, align 4, !tbaa !30
  %44 = icmp slt i32 %41, %43
  br i1 %44, label %45, label %66

45:                                               ; preds = %39
  call void @llvm.lifetime.start.p0(i64 8, ptr %11) #11
  %46 = load ptr, ptr %6, align 8, !tbaa !52
  %47 = load ptr, ptr %46, align 8, !tbaa !57
  %48 = load i32, ptr %9, align 4, !tbaa !30
  %49 = add nsw i32 %48, 1
  %50 = sext i32 %49 to i64
  %51 = getelementptr inbounds ptr, ptr %47, i64 %50
  %52 = load ptr, ptr %51, align 8, !tbaa !55
  %53 = call i64 @strtol(ptr noundef %52, ptr noundef %11, i32 noundef 10) #11
  %54 = trunc i64 %53 to i32
  %55 = load ptr, ptr %8, align 8, !tbaa !51
  store i32 %54, ptr %55, align 4, !tbaa !30
  %56 = load ptr, ptr %11, align 8, !tbaa !55
  %57 = icmp ne ptr %56, null
  br i1 %57, label %58, label %63

58:                                               ; preds = %45
  %59 = load ptr, ptr %11, align 8, !tbaa !55
  %60 = load i8, ptr %59, align 1, !tbaa !31
  %61 = sext i8 %60 to i32
  %62 = icmp ne i32 %61, 0
  br i1 %62, label %63, label %65

63:                                               ; preds = %58, %45
  %64 = load ptr, ptr %8, align 8, !tbaa !51
  store i32 0, ptr %64, align 4, !tbaa !30
  store i32 26, ptr %10, align 4, !tbaa !30
  br label %65

65:                                               ; preds = %63, %58
  call void @llvm.lifetime.end.p0(i64 8, ptr %11) #11
  br label %66

66:                                               ; preds = %65, %39
  %67 = load ptr, ptr %8, align 8, !tbaa !51
  %68 = load i32, ptr %67, align 4, !tbaa !30
  %69 = icmp slt i32 %68, 1
  br i1 %69, label %70, label %78

70:                                               ; preds = %66
  call void @llvm.lifetime.start.p0(i64 4, ptr %12) #11
  %71 = call noundef i32 @_Z25tMPI_Thread_get_hw_numberv()
  store i32 %71, ptr %12, align 4, !tbaa !30
  %72 = load i32, ptr %12, align 4, !tbaa !30
  %73 = icmp slt i32 %72, 1
  br i1 %73, label %74, label %75

74:                                               ; preds = %70
  store i32 1, ptr %12, align 4, !tbaa !30
  br label %75

75:                                               ; preds = %74, %70
  %76 = load i32, ptr %12, align 4, !tbaa !30
  %77 = load ptr, ptr %8, align 8, !tbaa !51
  store i32 %76, ptr %77, align 4, !tbaa !30
  call void @llvm.lifetime.end.p0(i64 4, ptr %12) #11
  br label %78

78:                                               ; preds = %75, %66
  %79 = load i32, ptr %10, align 4, !tbaa !30
  call void @llvm.lifetime.end.p0(i64 4, ptr %10) #11
  call void @llvm.lifetime.end.p0(i64 4, ptr %9) #11
  ret i32 %79
}