; Function Attrs: mustprogress uwtable
define noundef range(i32 0, 27) i32 @_Z10tMPI_Get_NPiPPPcPKcS_(ptr noundef readonly captures(none) %0, ptr noundef readonly captures(none) %1, ptr noundef readonly %2, ptr noundef writeonly captures(none) initializes((0, 4)) %3) local_unnamed_addr #0 {
  %5 = alloca ptr, align 8
  store i32 0, ptr %3, align 4, !tbaa !46
  %.not = icmp eq ptr %2, null
  %.pre = load i32, ptr %0, align 4, !tbaa !46
  br i1 %.not, label %.loopexit, label %.preheader

.preheader:                                       ; preds = %4
  %6 = icmp sgt i32 %.pre, 1
  br i1 %6, label %.lr.ph, label %.loopexit

.lr.ph:                                           ; preds = %.preheader
  %7 = load ptr, ptr %1, align 8, !tbaa !47
  %wide.trip.count = zext nneg i32 %.pre to i64
  br label %8

8:                                                ; preds = %.lr.ph, %13
  %indvars.iv = phi i64 [ 1, %.lr.ph ], [ %indvars.iv.next, %13 ]
  %9 = getelementptr inbounds nuw ptr, ptr %7, i64 %indvars.iv
  %10 = load ptr, ptr %9, align 8, !tbaa !48
  %11 = tail call i32 @strcmp(ptr noundef nonnull dereferenceable(1) %2, ptr noundef nonnull dereferenceable(1) %10) #17
  %12 = icmp eq i32 %11, 0
  br i1 %12, label %.loopexit.loopexit.split.loop.exit34, label %13

13:                                               ; preds = %8
  %indvars.iv.next = add nuw nsw i64 %indvars.iv, 1
  %exitcond.not = icmp eq i64 %indvars.iv.next, %wide.trip.count
  br i1 %exitcond.not, label %.loopexit.loopexit, label %8, !llvm.loop !50

.loopexit.loopexit.split.loop.exit34:             ; preds = %8
  %14 = trunc nuw nsw i64 %indvars.iv to i32
  br label %.loopexit.loopexit

.loopexit.loopexit:                               ; preds = %13, %.loopexit.loopexit.split.loop.exit34
  %.0.ph = phi i32 [ %14, %.loopexit.loopexit.split.loop.exit34 ], [ %.pre, %13 ]
  %15 = add nuw nsw i32 %.0.ph, 1
  br label %.loopexit

.loopexit:                                        ; preds = %.loopexit.loopexit, %.preheader, %4
  %.0 = phi i32 [ 1, %4 ], [ 2, %.preheader ], [ %15, %.loopexit.loopexit ]
  %16 = icmp slt i32 %.0, %.pre
  br i1 %16, label %17, label %.thread

17:                                               ; preds = %.loopexit
  call void @llvm.lifetime.start.p0(i64 8, ptr nonnull %5) #18
  %18 = load ptr, ptr %1, align 8, !tbaa !47
  %19 = zext nneg i32 %.0 to i64
  %20 = getelementptr inbounds nuw ptr, ptr %18, i64 %19
  %21 = load ptr, ptr %20, align 8, !tbaa !48
  %22 = call i64 @strtol(ptr noundef %21, ptr noundef nonnull %5, i32 noundef 10) #18
  %23 = trunc i64 %22 to i32
  store i32 %23, ptr %3, align 4, !tbaa !46
  %24 = load ptr, ptr %5, align 8, !tbaa !48
  %.not23 = icmp eq ptr %24, null
  br i1 %.not23, label %.thread32, label %25

25:                                               ; preds = %17
  %26 = load i8, ptr %24, align 1, !tbaa !52
  %.not24 = icmp eq i8 %26, 0
  br i1 %.not24, label %27, label %.thread32

.thread32:                                        ; preds = %17, %25
  store i32 0, ptr %3, align 4, !tbaa !46
  call void @llvm.lifetime.end.p0(i64 8, ptr nonnull %5) #18
  br label %.thread

27:                                               ; preds = %25
  call void @llvm.lifetime.end.p0(i64 8, ptr nonnull %5) #18
  %28 = icmp slt i32 %23, 1
  br i1 %28, label %.thread, label %30

.thread:                                          ; preds = %.loopexit, %.thread32, %27
  %.01831 = phi i32 [ 0, %27 ], [ 26, %.thread32 ], [ 0, %.loopexit ]
  %29 = tail call noundef i32 @_Z25tMPI_Thread_get_hw_numberv()
  %spec.store.select = tail call i32 @llvm.smax.i32(i32 %29, i32 1)
  store i32 %spec.store.select, ptr %3, align 4, !tbaa !46
  br label %30

30:                                               ; preds = %.thread, %27
  %.01830 = phi i32 [ %.01831, %.thread ], [ 0, %27 ]
  ret i32 %.01830
}